target datalayout = "e-m:e-p270:32:32-p271:32:32-p272:64:64-i64:64-i128:128-f80:128-n8:16:32:64-S128"
target triple = "x86_64-pc-linux-gnu"

%struct.avifIO = type { ptr, ptr, ptr, i64, i32, ptr }
%struct.avifROData = type { ptr, i64 }
%struct.avifIOFileReader = type { %struct.avifIO, %struct.avifRWData, ptr }
%struct.avifRWData = type { ptr, i64 }

; Function Attrs: nounwind uwtable
define internal i32 @avifIOFileReaderRead(ptr noundef %0, i32 noundef %1, i64 noundef %2, i64 noundef %3, ptr noundef %4) #0 {
  %6 = alloca i32, align 4
  %7 = alloca ptr, align 8
  %8 = alloca i32, align 4
  %9 = alloca i64, align 8
  %10 = alloca i64, align 8
  %11 = alloca ptr, align 8
  %12 = alloca ptr, align 8
  %13 = alloca i64, align 8
  %14 = alloca i32, align 4
  %15 = alloca i64, align 8
  store ptr %0, ptr %7, align 8
  store i32 %1, ptr %8, align 4
  store i64 %2, ptr %9, align 8
  store i64 %3, ptr %10, align 8
  store ptr %4, ptr %11, align 8
  %16 = load i32, ptr %8, align 4
  %17 = icmp ne i32 %16, 0
  br i1 %17, label %18, label %19

18:                                               ; preds = %5
  store i32 22, ptr %6, align 4
  br label %107

19:                                               ; preds = %5
  %20 = load ptr, ptr %7, align 8
  store ptr %20, ptr %12, align 8
  %21 = load i64, ptr %9, align 8
  %22 = load ptr, ptr %12, align 8
  %23 = getelementptr inbounds nuw %struct.avifIOFileReader, ptr %22, i32 0, i32 0
  %24 = getelementptr inbounds nuw %struct.avifIO, ptr %23, i32 0, i32 3
  %25 = load i64, ptr %24, align 8
  %26 = icmp ugt i64 %21, %25
  br i1 %26, label %27, label %28

27:                                               ; preds = %19
  store i32 22, ptr %6, align 4
  br label %107

28:                                               ; preds = %19
  %29 = load ptr, ptr %12, align 8
  %30 = getelementptr inbounds nuw %struct.avifIOFileReader, ptr %29, i32 0, i32 0
  %31 = getelementptr inbounds nuw %struct.avifIO, ptr %30, i32 0, i32 3
  %32 = load i64, ptr %31, align 8
  %33 = load i64, ptr %9, align 8
  %34 = sub i64 %32, %33
  store i64 %34, ptr %13, align 8
  %35 = load i64, ptr %10, align 8
  %36 = load i64, ptr %13, align 8
  %37 = icmp ugt i64 %35, %36
  br i1 %37, label %38, label %40

38:                                               ; preds = %28
  %39 = load i64, ptr %13, align 8
  store i64 %39, ptr %10, align 8
  br label %40

40:                                               ; preds = %38, %28
  %41 = load i64, ptr %10, align 8
  %42 = icmp ugt i64 %41, 0
  br i1 %42, label %43, label %97

43:                                               ; preds = %40
  %44 = load i64, ptr %9, align 8
  %45 = icmp ugt i64 %44, 9223372036854775807
  br i1 %45, label %46, label %47

46:                                               ; preds = %43
  store i32 22, ptr %6, align 4
  br label %107

47:                                               ; preds = %43
  %48 = load ptr, ptr %12, align 8
  %49 = getelementptr inbounds nuw %struct.avifIOFileReader, ptr %48, i32 0, i32 1
  %50 = getelementptr inbounds nuw %struct.avifRWData, ptr %49, i32 0, i32 1
  %51 = load i64, ptr %50, align 8
  %52 = load i64, ptr %10, align 8
  %53 = icmp ult i64 %51, %52
  br i1 %53, label %54, label %66

54:                                               ; preds = %47
  br label %55

55:                                               ; preds = %54
  %56 = load ptr, ptr %12, align 8
  %57 = getelementptr inbounds nuw %struct.avifIOFileReader, ptr %56, i32 0, i32 1
  %58 = load i64, ptr %10, align 8
  %59 = call i32 @avifRWDataRealloc(ptr noundef %57, i64 noundef %58)
  store i32 %59, ptr %14, align 4
  %60 = load i32, ptr %14, align 4
  %61 = icmp ne i32 %60, 0
  br i1 %61, label %62, label %64

62:                                               ; preds = %55
  %63 = load i32, ptr %14, align 4
  store i32 %63, ptr %6, align 4
  br label %107

64:                                               ; preds = %55
  br label %65

65:                                               ; preds = %64
  br label %66

66:                                               ; preds = %65, %47
  %67 = load ptr, ptr %12, align 8
  %68 = getelementptr inbounds nuw %struct.avifIOFileReader, ptr %67, i32 0, i32 2
  %69 = load ptr, ptr %68, align 8
  %70 = load i64, ptr %9, align 8
  %71 = call i32 @fseek(ptr noundef %69, i64 noundef %70, i32 noundef 0)
  %72 = icmp ne i32 %71, 0
  br i1 %72, label %73, label %74

73:                                               ; preds = %66
  store i32 22, ptr %6, align 4
  br label %107

74:                                               ; preds = %66
  %75 = load ptr, ptr %12, align 8
  %76 = getelementptr inbounds nuw %struct.avifIOFileReader, ptr %75, i32 0, i32 1
  %77 = getelementptr inbounds nuw %struct.avifRWData, ptr %76, i32 0, i32 0
  %78 = load ptr, ptr %77, align 8
  %79 = load i64, ptr %10, align 8
  %80 = load ptr, ptr %12, align 8
  %81 = getelementptr inbounds nuw %struct.avifIOFileReader, ptr %80, i32 0, i32 2
  %82 = load ptr, ptr %81, align 8
  %83 = call i64 @fread(ptr noundef %78, i64 noundef 1, i64 noundef %79, ptr noundef %82)
  store i64 %83, ptr %15, align 8
  %84 = load i64, ptr %10, align 8
  %85 = load i64, ptr %15, align 8
  %86 = icmp ne i64 %84, %85
  br i1 %86, label %87, label %96

87:                                               ; preds = %74
  %88 = load ptr, ptr %12, align 8
  %89 = getelementptr inbounds nuw %struct.avifIOFileReader, ptr %88, i32 0, i32 2
  %90 = load ptr, ptr %89, align 8
  %91 = call i32 @ferror(ptr noundef %90) #4
  %92 = icmp ne i32 %91, 0
  br i1 %92, label %93, label %94

93:                                               ; preds = %87
  store i32 22, ptr %6, align 4
  br label %107

94:                                               ; preds = %87
  %95 = load i64, ptr %15, align 8
  store i64 %95, ptr %10, align 8
  br label %96

96:                                               ; preds = %94, %74
  br label %97

97:                                               ; preds = %96, %40
  %98 = load ptr, ptr %12, align 8
  %99 = getelementptr inbounds nuw %struct.avifIOFileReader, ptr %98, i32 0, i32 1
  %100 = getelementptr inbounds nuw %struct.avifRWData, ptr %99, i32 0, i32 0
  %101 = load ptr, ptr %100, align 8
  %102 = load ptr, ptr %11, align 8
  %103 = getelementptr inbounds nuw %struct.avifROData, ptr %102, i32 0, i32 0
  store ptr %101, ptr %103, align 8
  %104 = load i64, ptr %10, align 8
  %105 = load ptr, ptr %11, align 8
  %106 = getelementptr inbounds nuw %struct.avifROData, ptr %105, i32 0, i32 1
  store i64 %104, ptr %106, align 8
  store i32 0, ptr %6, align 4
  br label %107

107:                                              ; preds = %97, %93, %73, %62, %46, %27, %18
  %108 = load i32, ptr %6, align 4
  ret i32 %108
}