; Function Attrs: nounwind uwtable
define internal i32 @avifIOFileReaderRead(ptr noundef %0, i32 noundef %1, i64 noundef %2, i64 noundef %3, ptr noundef writeonly captures(none) %4) #0 {
  %.not = icmp eq i32 %1, 0
  br i1 %.not, label %6, label %36

6:                                                ; preds = %5
  %7 = getelementptr inbounds nuw i8, ptr %0, i64 24
  %8 = load i64, ptr %7, align 8
  %9 = icmp ugt i64 %2, %8
  br i1 %9, label %36, label %10

10:                                               ; preds = %6
  %11 = sub nuw i64 %8, %2
  %spec.select = tail call i64 @llvm.umin.i64(i64 %3, i64 %11)
  %.not37 = icmp eq i64 %spec.select, 0
  br i1 %.not37, label %32, label %12

12:                                               ; preds = %10
  %13 = icmp slt i64 %2, 0
  br i1 %13, label %36, label %14

14:                                               ; preds = %12
  %15 = getelementptr inbounds nuw i8, ptr %0, i64 48
  %16 = getelementptr inbounds nuw i8, ptr %0, i64 56
  %17 = load i64, ptr %16, align 8
  %18 = icmp ult i64 %17, %spec.select
  br i1 %18, label %19, label %21

19:                                               ; preds = %14
  %20 = tail call i32 @avifRWDataRealloc(ptr noundef nonnull %15, i64 noundef %spec.select) #7
  %.not38 = icmp eq i32 %20, 0
  br i1 %.not38, label %21, label %36

21:                                               ; preds = %19, %14
  %22 = getelementptr inbounds nuw i8, ptr %0, i64 64
  %23 = load ptr, ptr %22, align 8
  %24 = tail call i32 @fseek(ptr noundef %23, i64 noundef %2, i32 noundef 0)
  %.not39 = icmp eq i32 %24, 0
  br i1 %.not39, label %25, label %36

25:                                               ; preds = %21
  %26 = load ptr, ptr %15, align 8
  %27 = load ptr, ptr %22, align 8
  %28 = tail call i64 @fread(ptr noundef %26, i64 noundef 1, i64 noundef %spec.select, ptr noundef %27)
  %.not40 = icmp eq i64 %spec.select, %28
  br i1 %.not40, label %32, label %29

29:                                               ; preds = %25
  %30 = load ptr, ptr %22, align 8
  %31 = tail call i32 @ferror(ptr noundef %30) #7
  %.not41 = icmp eq i32 %31, 0
  br i1 %.not41, label %32, label %36

32:                                               ; preds = %29, %25, %10
  %.1 = phi i64 [ %spec.select, %25 ], [ 0, %10 ], [ %28, %29 ]
  %33 = getelementptr inbounds nuw i8, ptr %0, i64 48
  %34 = load ptr, ptr %33, align 8
  store ptr %34, ptr %4, align 8
  %35 = getelementptr inbounds nuw i8, ptr %4, i64 8
  store i64 %.1, ptr %35, align 8
  br label %36

36:                                               ; preds = %29, %21, %19, %12, %6, %5, %32
  %.0 = phi i32 [ 0, %32 ], [ 22, %5 ], [ 22, %6 ], [ 22, %12 ], [ %20, %19 ], [ 22, %21 ], [ 22, %29 ]
  ret i32 %.0
}